target datalayout = "e-m:e-p270:32:32-p271:32:32-p272:64:64-i64:64-i128:128-f80:128-n8:16:32:64-S128"
target triple = "x86_64-pc-linux-gnu"

%struct._object = type { %union.anon, ptr }
%union.anon = type { i64 }
%struct.PyVarObject = type { %struct._object, i64 }
%struct._typeobject = type { %struct.PyVarObject, ptr, i64, i64, ptr, i64, ptr, ptr, ptr, ptr, ptr, ptr, ptr, ptr, ptr, ptr, ptr, ptr, ptr, i64, ptr, ptr, ptr, ptr, i64, ptr, ptr, ptr, ptr, ptr, ptr, ptr, ptr, ptr, i64, ptr, ptr, ptr, ptr, ptr, ptr, ptr, ptr, ptr, ptr, ptr, i32, ptr, ptr, i8, i16 }
%struct.anon.5 = type { i32, i32 }
%struct._frame = type { %struct._object, ptr, ptr, ptr, i32, i8, i8, ptr, ptr, [1 x ptr] }

@_Py_NoneStruct = external global %struct._object, align 8
@_Py_tss_tstate = external thread_local global ptr, align 8

; Function Attrs: inlinehint nounwind uwtable
define internal i32 @PyType_HasFeature(ptr noundef %0, i64 noundef %1) #3 {
  %3 = alloca ptr, align 8
  %4 = alloca i64, align 8
  %5 = alloca i64, align 8
  store ptr %0, ptr %3, align 8, !tbaa !203
  store i64 %1, ptr %4, align 8, !tbaa !204
  call void @llvm.lifetime.start.p0(i64 8, ptr %5) #12
  %6 = load ptr, ptr %3, align 8, !tbaa !203
  %7 = getelementptr inbounds nuw %struct._typeobject, ptr %6, i32 0, i32 19
  %8 = load i64, ptr %7, align 8, !tbaa !205
  store i64 %8, ptr %5, align 8, !tbaa !204
  %9 = load i64, ptr %5, align 8, !tbaa !204
  %10 = load i64, ptr %4, align 8, !tbaa !204
  %11 = and i64 %9, %10
  %12 = icmp ne i64 %11, 0
  %13 = zext i1 %12 to i32
  call void @llvm.lifetime.end.p0(i64 8, ptr %5) #12
  ret i32 %13
}

; Function Attrs: inlinehint nounwind uwtable
define internal ptr @_Py_TYPE(ptr noundef %0) #3 {
  %2 = alloca ptr, align 8
  store ptr %0, ptr %2, align 8, !tbaa !9
  %3 = load ptr, ptr %2, align 8, !tbaa !9
  %4 = getelementptr inbounds nuw %struct._object, ptr %3, i32 0, i32 1
  %5 = load ptr, ptr %4, align 8, !tbaa !206
  ret ptr %5
}

; Function Attrs: inlinehint nounwind uwtable
define internal i64 @_PyVectorcall_NARGS(i64 noundef %0) #3 {
  %2 = alloca i64, align 8
  store i64 %0, ptr %2, align 8, !tbaa !204
  %3 = load i64, ptr %2, align 8, !tbaa !204
  %4 = and i64 %3, 9223372036854775807
  ret i64 %4
}

; Function Attrs: inlinehint nounwind uwtable
define internal ptr @_PyVectorcall_FunctionInline(ptr noundef %0) #3 {
  %2 = alloca ptr, align 8
  %3 = alloca ptr, align 8
  %4 = alloca ptr, align 8
  %5 = alloca i32, align 4
  %6 = alloca i64, align 8
  %7 = alloca ptr, align 8
  store ptr %0, ptr %3, align 8, !tbaa !9
  call void @llvm.lifetime.start.p0(i64 8, ptr %4) #12
  %8 = load ptr, ptr %3, align 8, !tbaa !9
  %9 = call ptr @_Py_TYPE(ptr noundef %8)
  store ptr %9, ptr %4, align 8, !tbaa !203
  %10 = load ptr, ptr %4, align 8, !tbaa !203
  %11 = call i32 @PyType_HasFeature(ptr noundef %10, i64 noundef 2048)
  %12 = icmp ne i32 %11, 0
  br i1 %12, label %14, label %13

13:                                               ; preds = %1
  store ptr null, ptr %2, align 8
  store i32 1, ptr %5, align 4
  br label %22

14:                                               ; preds = %1
  call void @llvm.lifetime.start.p0(i64 8, ptr %6) #12
  %15 = load ptr, ptr %4, align 8, !tbaa !203
  %16 = getelementptr inbounds nuw %struct._typeobject, ptr %15, i32 0, i32 5
  %17 = load i64, ptr %16, align 8, !tbaa !275
  store i64 %17, ptr %6, align 8, !tbaa !204
  call void @llvm.lifetime.start.p0(i64 8, ptr %7) #12
  %18 = load ptr, ptr %3, align 8, !tbaa !9
  %19 = load i64, ptr %6, align 8, !tbaa !204
  %20 = getelementptr i8, ptr %18, i64 %19
  call void @llvm.memcpy.p0.p0.i64(ptr align 8 %7, ptr align 1 %20, i64 8, i1 false)
  %21 = load ptr, ptr %7, align 8, !tbaa !212
  store ptr %21, ptr %2, align 8
  store i32 1, ptr %5, align 4
  call void @llvm.lifetime.end.p0(i64 8, ptr %7) #12
  call void @llvm.lifetime.end.p0(i64 8, ptr %6) #12
  br label %22

22:                                               ; preds = %14, %13
  call void @llvm.lifetime.end.p0(i64 8, ptr %4) #12
  %23 = load ptr, ptr %2, align 8
  ret ptr %23
}

; Function Attrs: alwaysinline nounwind uwtable
define internal i32 @_Py_IsImmortal(ptr noundef %0) #5 {
  %2 = alloca ptr, align 8
  store ptr %0, ptr %2, align 8, !tbaa !9
  %3 = load ptr, ptr %2, align 8, !tbaa !9
  %4 = getelementptr inbounds nuw %struct._object, ptr %3, i32 0, i32 0
  %5 = getelementptr inbounds nuw %struct.anon.5, ptr %4, i32 0, i32 0
  %6 = load i32, ptr %5, align 8, !tbaa !102
  %7 = icmp slt i32 %6, 0
  %8 = zext i1 %7 to i32
  ret i32 %8
}

; Function Attrs: inlinehint nounwind uwtable
define internal ptr @_PyObject_VectorcallTstate(ptr noundef %0, ptr noundef %1, ptr noundef %2, i64 noundef %3, ptr noundef %4) #3 {
  %6 = alloca ptr, align 8
  %7 = alloca ptr, align 8
  %8 = alloca ptr, align 8
  %9 = alloca ptr, align 8
  %10 = alloca i64, align 8
  %11 = alloca ptr, align 8
  %12 = alloca ptr, align 8
  %13 = alloca ptr, align 8
  %14 = alloca i64, align 8
  %15 = alloca i32, align 4
  store ptr %0, ptr %7, align 8, !tbaa !4
  store ptr %1, ptr %8, align 8, !tbaa !9
  store ptr %2, ptr %9, align 8, !tbaa !103
  store i64 %3, ptr %10, align 8, !tbaa !204
  store ptr %4, ptr %11, align 8, !tbaa !9
  call void @llvm.lifetime.start.p0(i64 8, ptr %12) #12
  call void @llvm.lifetime.start.p0(i64 8, ptr %13) #12
  %16 = load ptr, ptr %8, align 8, !tbaa !9
  %17 = call ptr @_PyVectorcall_FunctionInline(ptr noundef %16)
  store ptr %17, ptr %12, align 8, !tbaa !212
  %18 = load ptr, ptr %12, align 8, !tbaa !212
  %19 = icmp eq ptr %18, null
  br i1 %19, label %20, label %29

20:                                               ; preds = %5
  call void @llvm.lifetime.start.p0(i64 8, ptr %14) #12
  %21 = load i64, ptr %10, align 8, !tbaa !204
  %22 = call i64 @_PyVectorcall_NARGS(i64 noundef %21)
  store i64 %22, ptr %14, align 8, !tbaa !204
  %23 = load ptr, ptr %7, align 8, !tbaa !4
  %24 = load ptr, ptr %8, align 8, !tbaa !9
  %25 = load ptr, ptr %9, align 8, !tbaa !103
  %26 = load i64, ptr %14, align 8, !tbaa !204
  %27 = load ptr, ptr %11, align 8, !tbaa !9
  %28 = call ptr @_PyObject_MakeTpCall(ptr noundef %23, ptr noundef %24, ptr noundef %25, i64 noundef %26, ptr noundef %27)
  store ptr %28, ptr %6, align 8
  store i32 1, ptr %15, align 4
  call void @llvm.lifetime.end.p0(i64 8, ptr %14) #12
  br label %40

29:                                               ; preds = %5
  %30 = load ptr, ptr %12, align 8, !tbaa !212
  %31 = load ptr, ptr %8, align 8, !tbaa !9
  %32 = load ptr, ptr %9, align 8, !tbaa !103
  %33 = load i64, ptr %10, align 8, !tbaa !204
  %34 = load ptr, ptr %11, align 8, !tbaa !9
  %35 = call ptr %30(ptr noundef %31, ptr noundef %32, i64 noundef %33, ptr noundef %34)
  store ptr %35, ptr %13, align 8, !tbaa !9
  %36 = load ptr, ptr %7, align 8, !tbaa !4
  %37 = load ptr, ptr %8, align 8, !tbaa !9
  %38 = load ptr, ptr %13, align 8, !tbaa !9
  %39 = call ptr @_Py_CheckFunctionResult(ptr noundef %36, ptr noundef %37, ptr noundef %38, ptr noundef null)
  store ptr %39, ptr %6, align 8
  store i32 1, ptr %15, align 4
  br label %40

40:                                               ; preds = %29, %20
  call void @llvm.lifetime.end.p0(i64 8, ptr %13) #12
  call void @llvm.lifetime.end.p0(i64 8, ptr %12) #12
  %41 = load ptr, ptr %6, align 8
  ret ptr %41
}

; Function Attrs: inlinehint nounwind uwtable
define internal void @Py_XDECREF(ptr noundef %0) #3 {
  %2 = alloca ptr, align 8
  store ptr %0, ptr %2, align 8, !tbaa !9
  %3 = load ptr, ptr %2, align 8, !tbaa !9
  %4 = icmp ne ptr %3, null
  br i1 %4, label %5, label %7

5:                                                ; preds = %1
  %6 = load ptr, ptr %2, align 8, !tbaa !9
  call void @Py_DECREF(ptr noundef %6)
  br label %7

7:                                                ; preds = %5, %1
  ret void
}

; Function Attrs: alwaysinline nounwind uwtable
define internal void @Py_DECREF(ptr noundef %0) #5 {
  %2 = alloca ptr, align 8
  store ptr %0, ptr %2, align 8, !tbaa !9
  %3 = load ptr, ptr %2, align 8, !tbaa !9
  %4 = call i32 @_Py_IsImmortal(ptr noundef %3)
  %5 = icmp ne i32 %4, 0
  br i1 %5, label %6, label %7

6:                                                ; preds = %1
  br label %16

7:                                                ; preds = %1
  %8 = load ptr, ptr %2, align 8, !tbaa !9
  %9 = getelementptr inbounds nuw %struct._object, ptr %8, i32 0, i32 0
  %10 = getelementptr inbounds nuw %struct.anon.5, ptr %9, i32 0, i32 0
  %11 = load i32, ptr %10, align 8, !tbaa !102
  %12 = add i32 %11, -1
  store i32 %12, ptr %10, align 8, !tbaa !102
  %13 = icmp eq i32 %12, 0
  br i1 %13, label %14, label %16

14:                                               ; preds = %7
  %15 = load ptr, ptr %2, align 8, !tbaa !9
  call void @_Py_Dealloc(ptr noundef %15)
  br label %16

16:                                               ; preds = %6, %14, %7
  ret void
}

; Function Attrs: nounwind uwtable
define internal ptr @call_trampoline(ptr noundef %0, ptr noundef %1, ptr noundef %2, i32 noundef %3, ptr noundef %4) #0 {
  %6 = alloca ptr, align 8
  %7 = alloca ptr, align 8
  %8 = alloca ptr, align 8
  %9 = alloca i32, align 4
  %10 = alloca ptr, align 8
  %11 = alloca [3 x ptr], align 16
  %12 = alloca ptr, align 8
  store ptr %0, ptr %6, align 8, !tbaa !4
  store ptr %1, ptr %7, align 8, !tbaa !9
  store ptr %2, ptr %8, align 8, !tbaa !295
  store i32 %3, ptr %9, align 4, !tbaa !97
  store ptr %4, ptr %10, align 8, !tbaa !9
  %13 = load ptr, ptr %10, align 8, !tbaa !9
  %14 = icmp eq ptr %13, null
  br i1 %14, label %15, label %16

15:                                               ; preds = %5
  store ptr @_Py_NoneStruct, ptr %10, align 8, !tbaa !9
  br label %16

16:                                               ; preds = %15, %5
  call void @llvm.lifetime.start.p0(i64 24, ptr %11) #12
  %17 = load ptr, ptr %8, align 8, !tbaa !295
  store ptr %17, ptr %11, align 8, !tbaa !9
  %18 = getelementptr inbounds ptr, ptr %11, i64 1
  %19 = load i32, ptr %9, align 4, !tbaa !97
  %20 = sext i32 %19 to i64
  %21 = getelementptr [8 x ptr], ptr @whatstrings, i64 0, i64 %20
  %22 = load ptr, ptr %21, align 8, !tbaa !9
  store ptr %22, ptr %18, align 8, !tbaa !9
  %23 = getelementptr inbounds ptr, ptr %11, i64 2
  %24 = load ptr, ptr %10, align 8, !tbaa !9
  store ptr %24, ptr %23, align 8, !tbaa !9
  call void @llvm.lifetime.start.p0(i64 8, ptr %12) #12
  %25 = load ptr, ptr %6, align 8, !tbaa !4
  %26 = load ptr, ptr %7, align 8, !tbaa !9
  %27 = getelementptr inbounds [3 x ptr], ptr %11, i64 0, i64 0
  %28 = call ptr @_PyObject_VectorcallTstate(ptr noundef %25, ptr noundef %26, ptr noundef %27, i64 noundef 3, ptr noundef null)
  store ptr %28, ptr %12, align 8, !tbaa !9
  %29 = load ptr, ptr %12, align 8, !tbaa !9
  call void @llvm.lifetime.end.p0(i64 8, ptr %12) #12
  call void @llvm.lifetime.end.p0(i64 24, ptr %11) #12
  ret ptr %29
}

; Function Attrs: inlinehint nounwind uwtable
define internal ptr @_PyThreadState_GET() #3 {
  %1 = call align 8 ptr @llvm.threadlocal.address.p0(ptr align 8 @_Py_tss_tstate)
  %2 = load ptr, ptr %1, align 8, !tbaa !4
  ret ptr %2
}

; Function Attrs: nounwind uwtable
define internal i32 @trace_trampoline(ptr noundef %0, ptr noundef %1, i32 noundef %2, ptr noundef %3) #0 {
  %5 = alloca i32, align 4
  %6 = alloca ptr, align 8
  %7 = alloca ptr, align 8
  %8 = alloca i32, align 4
  %9 = alloca ptr, align 8
  %10 = alloca ptr, align 8
  %11 = alloca i32, align 4
  %12 = alloca ptr, align 8
  %13 = alloca ptr, align 8
  %14 = alloca ptr, align 8
  %15 = alloca ptr, align 8
  %16 = alloca ptr, align 8
  %17 = alloca ptr, align 8
  store ptr %0, ptr %6, align 8, !tbaa !9
  store ptr %1, ptr %7, align 8, !tbaa !295
  store i32 %2, ptr %8, align 4, !tbaa !97
  store ptr %3, ptr %9, align 8, !tbaa !9
  call void @llvm.lifetime.start.p0(i64 8, ptr %10) #12
  %18 = load i32, ptr %8, align 4, !tbaa !97
  %19 = icmp eq i32 %18, 0
  br i1 %19, label %20, label %22

20:                                               ; preds = %4
  %21 = load ptr, ptr %6, align 8, !tbaa !9
  store ptr %21, ptr %10, align 8, !tbaa !9
  br label %26

22:                                               ; preds = %4
  %23 = load ptr, ptr %7, align 8, !tbaa !295
  %24 = getelementptr inbounds nuw %struct._frame, ptr %23, i32 0, i32 3
  %25 = load ptr, ptr %24, align 8, !tbaa !307
  store ptr %25, ptr %10, align 8, !tbaa !9
  br label %26

26:                                               ; preds = %22, %20
  %27 = load ptr, ptr %10, align 8, !tbaa !9
  %28 = icmp eq ptr %27, null
  br i1 %28, label %29, label %30

29:                                               ; preds = %26
  store i32 0, ptr %5, align 4
  store i32 1, ptr %11, align 4
  br label %74

30:                                               ; preds = %26
  call void @llvm.lifetime.start.p0(i64 8, ptr %12) #12
  %31 = call ptr @_PyThreadState_GET()
  store ptr %31, ptr %12, align 8, !tbaa !4
  call void @llvm.lifetime.start.p0(i64 8, ptr %13) #12
  %32 = load ptr, ptr %12, align 8, !tbaa !4
  %33 = load ptr, ptr %10, align 8, !tbaa !9
  %34 = load ptr, ptr %7, align 8, !tbaa !295
  %35 = load i32, ptr %8, align 4, !tbaa !97
  %36 = load ptr, ptr %9, align 8, !tbaa !9
  %37 = call ptr @call_trampoline(ptr noundef %32, ptr noundef %33, ptr noundef %34, i32 noundef %35, ptr noundef %36)
  store ptr %37, ptr %13, align 8, !tbaa !9
  %38 = load ptr, ptr %13, align 8, !tbaa !9
  %39 = icmp eq ptr %38, null
  br i1 %39, label %40, label %56

40:                                               ; preds = %30
  %41 = load ptr, ptr %12, align 8, !tbaa !4
  %42 = call i32 @_PyEval_SetTrace(ptr noundef %41, ptr noundef null, ptr noundef null)
  br label %43

43:                                               ; preds = %40
  call void @llvm.lifetime.start.p0(i64 8, ptr %14) #12
  %44 = load ptr, ptr %7, align 8, !tbaa !295
  %45 = getelementptr inbounds nuw %struct._frame, ptr %44, i32 0, i32 3
  store ptr %45, ptr %14, align 8, !tbaa !103
  call void @llvm.lifetime.start.p0(i64 8, ptr %15) #12
  %46 = load ptr, ptr %14, align 8, !tbaa !103
  %47 = load ptr, ptr %46, align 8, !tbaa !9
  store ptr %47, ptr %15, align 8, !tbaa !9
  %48 = load ptr, ptr %15, align 8, !tbaa !9
  %49 = icmp ne ptr %48, null
  br i1 %49, label %50, label %53

50:                                               ; preds = %43
  %51 = load ptr, ptr %14, align 8, !tbaa !103
  store ptr null, ptr %51, align 8, !tbaa !9
  %52 = load ptr, ptr %15, align 8, !tbaa !9
  call void @Py_DECREF(ptr noundef %52)
  br label %53

53:                                               ; preds = %50, %43
  call void @llvm.lifetime.end.p0(i64 8, ptr %15) #12
  call void @llvm.lifetime.end.p0(i64 8, ptr %14) #12
  br label %54

54:                                               ; preds = %53
  br label %55

55:                                               ; preds = %54
  store i32 -1, ptr %5, align 4
  store i32 1, ptr %11, align 4
  br label %73

56:                                               ; preds = %30
  %57 = load ptr, ptr %13, align 8, !tbaa !9
  %58 = icmp ne ptr %57, @_Py_NoneStruct
  br i1 %58, label %59, label %70

59:                                               ; preds = %56
  br label %60

60:                                               ; preds = %59
  call void @llvm.lifetime.start.p0(i64 8, ptr %16) #12
  %61 = load ptr, ptr %7, align 8, !tbaa !295
  %62 = getelementptr inbounds nuw %struct._frame, ptr %61, i32 0, i32 3
  store ptr %62, ptr %16, align 8, !tbaa !103
  call void @llvm.lifetime.start.p0(i64 8, ptr %17) #12
  %63 = load ptr, ptr %16, align 8, !tbaa !103
  %64 = load ptr, ptr %63, align 8, !tbaa !9
  store ptr %64, ptr %17, align 8, !tbaa !9
  %65 = load ptr, ptr %13, align 8, !tbaa !9
  %66 = load ptr, ptr %16, align 8, !tbaa !103
  store ptr %65, ptr %66, align 8, !tbaa !9
  %67 = load ptr, ptr %17, align 8, !tbaa !9
  call void @Py_XDECREF(ptr noundef %67)
  call void @llvm.lifetime.end.p0(i64 8, ptr %17) #12
  call void @llvm.lifetime.end.p0(i64 8, ptr %16) #12
  br label %68

68:                                               ; preds = %60
  br label %69

69:                                               ; preds = %68
  br label %72

70:                                               ; preds = %56
  %71 = load ptr, ptr %13, align 8, !tbaa !9
  call void @Py_DECREF(ptr noundef %71)
  br label %72

72:                                               ; preds = %70, %69
  store i32 0, ptr %5, align 4
  store i32 1, ptr %11, align 4
  br label %73

73:                                               ; preds = %72, %55
  call void @llvm.lifetime.end.p0(i64 8, ptr %13) #12
  call void @llvm.lifetime.end.p0(i64 8, ptr %12) #12
  br label %74

74:                                               ; preds = %73, %29
  call void @llvm.lifetime.end.p0(i64 8, ptr %10) #12
  %75 = load i32, ptr %5, align 4
  ret i32 %75
}