; Function Attrs: nounwind uwtable
define internal range(i32 -1, 1) i32 @trace_trampoline(ptr noundef %0, ptr noundef %1, i32 noundef %2, ptr noundef %3) #0 {
  %5 = alloca [3 x ptr], align 16
  %6 = icmp eq i32 %2, 0
  br i1 %6, label %10, label %7

7:                                                ; preds = %4
  %8 = getelementptr inbounds nuw i8, ptr %1, i64 32
  %9 = load ptr, ptr %8, align 8, !tbaa !294
  br label %10

10:                                               ; preds = %4, %7
  %.023 = phi ptr [ %9, %7 ], [ %0, %4 ]
  %11 = icmp eq ptr %.023, null
  br i1 %11, label %Py_DECREF.exit28, label %12

12:                                               ; preds = %10
  %13 = tail call align 8 ptr @llvm.threadlocal.address.p0(ptr align 8 @_Py_tss_tstate)
  %14 = load ptr, ptr %13, align 8, !tbaa !92
  %15 = icmp eq ptr %3, null
  %spec.store.select.i = select i1 %15, ptr @_Py_NoneStruct, ptr %3
  call void @llvm.lifetime.start.p0(i64 24, ptr nonnull %5) #15
  store ptr %1, ptr %5, align 16, !tbaa !93
  %16 = getelementptr inbounds nuw i8, ptr %5, i64 8
  %17 = sext i32 %2 to i64
  %18 = getelementptr [8 x ptr], ptr @whatstrings, i64 0, i64 %17
  %19 = load ptr, ptr %18, align 8, !tbaa !93
  store ptr %19, ptr %16, align 8, !tbaa !93
  %20 = getelementptr inbounds nuw i8, ptr %5, i64 16
  store ptr %spec.store.select.i, ptr %20, align 16, !tbaa !93
  %21 = getelementptr i8, ptr %.023, i64 8
  %.val.i.i.i = load ptr, ptr %21, align 8, !tbaa !96
  %22 = getelementptr i8, ptr %.val.i.i.i, i64 168
  %.val6.i.i.i = load i64, ptr %22, align 8, !tbaa !185
  %23 = and i64 %.val6.i.i.i, 2048
  %.not.i.i.i = icmp eq i64 %23, 0
  br i1 %.not.i.i.i, label %_PyVectorcall_FunctionInline.exit.thread.i.i, label %_PyVectorcall_FunctionInline.exit.i.i

_PyVectorcall_FunctionInline.exit.i.i:            ; preds = %12
  %24 = getelementptr inbounds nuw i8, ptr %.val.i.i.i, i64 56
  %25 = load i64, ptr %24, align 8, !tbaa !196
  %26 = getelementptr i8, ptr %.023, i64 %25
  %.0.copyload.i.i.i = load ptr, ptr %26, align 1
  %27 = icmp eq ptr %.0.copyload.i.i.i, null
  br i1 %27, label %_PyVectorcall_FunctionInline.exit.thread.i.i, label %29

_PyVectorcall_FunctionInline.exit.thread.i.i:     ; preds = %_PyVectorcall_FunctionInline.exit.i.i, %12
  %28 = call ptr @_PyObject_MakeTpCall(ptr noundef %14, ptr noundef nonnull %.023, ptr noundef nonnull %5, i64 noundef 3, ptr noundef null) #15
  br label %call_trampoline.exit

29:                                               ; preds = %_PyVectorcall_FunctionInline.exit.i.i
  %30 = call ptr %.0.copyload.i.i.i(ptr noundef nonnull %.023, ptr noundef nonnull %5, i64 noundef 3, ptr noundef null) #15
  %31 = call ptr @_Py_CheckFunctionResult(ptr noundef %14, ptr noundef nonnull %.023, ptr noundef %30, ptr noundef null) #15
  br label %call_trampoline.exit

call_trampoline.exit:                             ; preds = %_PyVectorcall_FunctionInline.exit.thread.i.i, %29
  %.0.i.i = phi ptr [ %28, %_PyVectorcall_FunctionInline.exit.thread.i.i ], [ %31, %29 ]
  call void @llvm.lifetime.end.p0(i64 24, ptr nonnull %5) #15
  %32 = icmp eq ptr %.0.i.i, null
  br i1 %32, label %33, label %42

33:                                               ; preds = %call_trampoline.exit
  %34 = call i32 @_PyEval_SetTrace(ptr noundef %14, ptr noundef null, ptr noundef null) #15
  %35 = getelementptr inbounds nuw i8, ptr %1, i64 32
  %36 = load ptr, ptr %35, align 8, !tbaa !93
  %.not26 = icmp eq ptr %36, null
  br i1 %.not26, label %Py_DECREF.exit28, label %37

37:                                               ; preds = %33
  store ptr null, ptr %35, align 8, !tbaa !93
  %38 = load i32, ptr %36, align 8, !tbaa !94
  %.not.i27 = icmp sgt i32 %38, -1
  br i1 %.not.i27, label %39, label %Py_DECREF.exit28

39:                                               ; preds = %37
  %40 = add nsw i32 %38, -1
  store i32 %40, ptr %36, align 8, !tbaa !94
  %41 = icmp eq i32 %40, 0
  br i1 %41, label %Py_DECREF.exit28.sink.split, label %Py_DECREF.exit28

42:                                               ; preds = %call_trampoline.exit
  %.not = icmp eq ptr %.0.i.i, @_Py_NoneStruct
  br i1 %.not, label %51, label %43

43:                                               ; preds = %42
  %44 = getelementptr inbounds nuw i8, ptr %1, i64 32
  %45 = load ptr, ptr %44, align 8, !tbaa !93
  store ptr %.0.i.i, ptr %44, align 8, !tbaa !93
  %.not.i30 = icmp eq ptr %45, null
  br i1 %.not.i30, label %Py_DECREF.exit28, label %46

46:                                               ; preds = %43
  %47 = load i32, ptr %45, align 8, !tbaa !94
  %.not.i.i = icmp sgt i32 %47, -1
  br i1 %.not.i.i, label %48, label %Py_DECREF.exit28

48:                                               ; preds = %46
  %49 = add nsw i32 %47, -1
  store i32 %49, ptr %45, align 8, !tbaa !94
  %50 = icmp eq i32 %49, 0
  br i1 %50, label %Py_DECREF.exit28.sink.split, label %Py_DECREF.exit28

51:                                               ; preds = %42
  %52 = load i32, ptr @_Py_NoneStruct, align 8, !tbaa !94
  %.not.i = icmp sgt i32 %52, -1
  br i1 %.not.i, label %53, label %Py_DECREF.exit28

53:                                               ; preds = %51
  %54 = add nsw i32 %52, -1
  store i32 %54, ptr @_Py_NoneStruct, align 8, !tbaa !94
  %55 = icmp eq i32 %54, 0
  br i1 %55, label %Py_DECREF.exit28.sink.split, label %Py_DECREF.exit28

Py_DECREF.exit28.sink.split:                      ; preds = %53, %48, %39
  %_Py_NoneStruct.sink = phi ptr [ %36, %39 ], [ %45, %48 ], [ @_Py_NoneStruct, %53 ]
  %.0.ph = phi i32 [ -1, %39 ], [ 0, %48 ], [ 0, %53 ]
  call void @_Py_Dealloc(ptr noundef nonnull %_Py_NoneStruct.sink) #15
  br label %Py_DECREF.exit28

Py_DECREF.exit28:                                 ; preds = %Py_DECREF.exit28.sink.split, %53, %51, %48, %46, %43, %39, %37, %33, %10
  %.0 = phi i32 [ 0, %10 ], [ -1, %33 ], [ -1, %37 ], [ -1, %39 ], [ 0, %43 ], [ 0, %46 ], [ 0, %48 ], [ 0, %51 ], [ 0, %53 ], [ %.0.ph, %Py_DECREF.exit28.sink.split ]
  ret i32 %.0
}